target datalayout = "e-m:e-p270:32:32-p271:32:32-p272:64:64-i64:64-i128:128-f80:128-n8:16:32:64-S128"
target triple = "x86_64-pc-linux-gnu"

%"class.llvm::SmallVectorImpl.6" = type { %"class.llvm::SmallVectorTemplateBase.7" }
%"class.llvm::SmallVectorTemplateBase.7" = type { %"class.llvm::SmallVectorTemplateCommon.8" }
%"class.llvm::SmallVectorTemplateCommon.8" = type { %"class.llvm::SmallVectorBase" }
%"class.llvm::SmallVectorBase" = type { ptr, i32, i32 }
%"class.llvm::DIBuilder" = type { ptr, ptr, ptr, ptr, ptr, ptr, ptr, %"class.llvm::SmallVector", %"class.llvm::SmallVector", %"class.llvm::SmallVector.0", %"class.llvm::SmallVector.5", %"class.llvm::SmallVector", %"class.llvm::MapVector", %"class.llvm::SmallVector", i8, [7 x i8], %"class.llvm::DenseMap.15" }
%"class.llvm::SmallVector.0" = type { %"class.llvm::SmallVectorImpl.1", %"struct.llvm::SmallVectorStorage.4" }
%"class.llvm::SmallVectorImpl.1" = type { %"class.llvm::SmallVectorTemplateBase.2" }
%"class.llvm::SmallVectorTemplateBase.2" = type { %"class.llvm::SmallVectorTemplateCommon.3" }
%"class.llvm::SmallVectorTemplateCommon.3" = type { %"class.llvm::SmallVectorBase" }
%"struct.llvm::SmallVectorStorage.4" = type { [32 x i8] }
%"class.llvm::SmallVector.5" = type { %"class.llvm::SmallVectorImpl.6", %"struct.llvm::SmallVectorStorage.9" }
%"struct.llvm::SmallVectorStorage.9" = type { [32 x i8] }
%"class.llvm::MapVector" = type { %"class.llvm::DenseMap", %"class.llvm::SmallVector.10" }
%"class.llvm::DenseMap" = type <{ ptr, i32, i32, i32, [4 x i8] }>
%"class.llvm::SmallVector.10" = type { %"class.llvm::SmallVectorImpl.11" }
%"class.llvm::SmallVectorImpl.11" = type { %"class.llvm::SmallVectorTemplateBase.12" }
%"class.llvm::SmallVectorTemplateBase.12" = type { %"class.llvm::SmallVectorTemplateCommon.13" }
%"class.llvm::SmallVectorTemplateCommon.13" = type { %"class.llvm::SmallVectorBase" }
%"class.llvm::SmallVector" = type { %"class.llvm::SmallVectorImpl", %"struct.llvm::SmallVectorStorage" }
%"class.llvm::SmallVectorImpl" = type { %"class.llvm::SmallVectorTemplateBase" }
%"class.llvm::SmallVectorTemplateBase" = type { %"class.llvm::SmallVectorTemplateCommon" }
%"class.llvm::SmallVectorTemplateCommon" = type { %"class.llvm::SmallVectorBase" }
%"struct.llvm::SmallVectorStorage" = type { [32 x i8] }
%"class.llvm::DenseMap.15" = type <{ ptr, i32, i32, i32, [4 x i8] }>
%"class.llvm::StringRef" = type { ptr, i64 }

; Function Attrs: mustprogress nounwind uwtable
define linkonce_odr hidden noundef zeroext i1 @_ZNK4llvm9StringRef5emptyEv(ptr noundef nonnull align 8 dereferenceable(16) %0) #0 comdat align 2 {
  %2 = alloca ptr, align 8
  store ptr %0, ptr %2, align 8
  %3 = load ptr, ptr %2, align 8
  %4 = getelementptr inbounds nuw %"class.llvm::StringRef", ptr %3, i32 0, i32 1
  %5 = load i64, ptr %4, align 8
  %6 = icmp eq i64 %5, 0
  ret i1 %6
}

; Function Attrs: mustprogress nounwind uwtable
define linkonce_odr hidden noundef ptr @_ZN4llvm6DINode20getCanonicalMDStringERNS_11LLVMContextENS_9StringRefE(ptr noundef nonnull align 8 dereferenceable(8) %0, ptr %1, i64 %2) #0 comdat align 2 {
  %4 = alloca ptr, align 8
  %5 = alloca %"class.llvm::StringRef", align 8
  %6 = alloca ptr, align 8
  %7 = alloca %"class.llvm::StringRef", align 8
  %8 = getelementptr inbounds nuw { ptr, i64 }, ptr %5, i32 0, i32 0
  store ptr %1, ptr %8, align 8
  %9 = getelementptr inbounds nuw { ptr, i64 }, ptr %5, i32 0, i32 1
  store i64 %2, ptr %9, align 8
  store ptr %0, ptr %6, align 8
  %10 = call noundef zeroext i1 @_ZNK4llvm9StringRef5emptyEv(ptr noundef nonnull align 8 dereferenceable(16) %5)
  br i1 %10, label %11, label %12

11:                                               ; preds = %3
  store ptr null, ptr %4, align 8
  br label %19

12:                                               ; preds = %3
  %13 = load ptr, ptr %6, align 8
  call void @llvm.memcpy.p0.p0.i64(ptr align 8 %7, ptr align 8 %5, i64 16, i1 false)
  %14 = getelementptr inbounds nuw { ptr, i64 }, ptr %7, i32 0, i32 0
  %15 = load ptr, ptr %14, align 8
  %16 = getelementptr inbounds nuw { ptr, i64 }, ptr %7, i32 0, i32 1
  %17 = load i64, ptr %16, align 8
  %18 = call noundef ptr @_ZN4llvm8MDString3getERNS_11LLVMContextENS_9StringRefE(ptr noundef nonnull align 8 dereferenceable(8) %13, ptr %15, i64 %17)
  store ptr %18, ptr %4, align 8
  br label %19

19:                                               ; preds = %12, %11
  %20 = load ptr, ptr %4, align 8
  ret ptr %20
}

; Function Attrs: mustprogress nounwind uwtable
define linkonce_odr hidden noundef ptr @_ZN4llvm12DIStringType7getImplERNS_11LLVMContextEjNS_9StringRefEPNS_8MetadataES5_S5_mjjNS4_11StorageTypeEb(ptr noundef nonnull align 8 dereferenceable(8) %0, i32 noundef %1, ptr %2, i64 %3, ptr noundef %4, ptr noundef %5, ptr noundef %6, i64 noundef %7, i32 noundef %8, i32 noundef %9, i32 noundef %10, i1 noundef zeroext %11) #0 comdat align 2 {
  %13 = alloca %"class.llvm::StringRef", align 8
  %14 = alloca ptr, align 8
  %15 = alloca i32, align 4
  %16 = alloca ptr, align 8
  %17 = alloca ptr, align 8
  %18 = alloca ptr, align 8
  %19 = alloca i64, align 8
  %20 = alloca i32, align 4
  %21 = alloca i32, align 4
  %22 = alloca i32, align 4
  %23 = alloca i8, align 1
  %24 = alloca %"class.llvm::StringRef", align 8
  %25 = getelementptr inbounds nuw { ptr, i64 }, ptr %13, i32 0, i32 0
  store ptr %2, ptr %25, align 8
  %26 = getelementptr inbounds nuw { ptr, i64 }, ptr %13, i32 0, i32 1
  store i64 %3, ptr %26, align 8
  store ptr %0, ptr %14, align 8
  store i32 %1, ptr %15, align 4
  store ptr %4, ptr %16, align 8
  store ptr %5, ptr %17, align 8
  store ptr %6, ptr %18, align 8
  store i64 %7, ptr %19, align 8
  store i32 %8, ptr %20, align 4
  store i32 %9, ptr %21, align 4
  store i32 %10, ptr %22, align 4
  %27 = zext i1 %11 to i8
  store i8 %27, ptr %23, align 1
  %28 = load ptr, ptr %14, align 8
  %29 = load i32, ptr %15, align 4
  %30 = load ptr, ptr %14, align 8
  call void @llvm.memcpy.p0.p0.i64(ptr align 8 %24, ptr align 8 %13, i64 16, i1 false)
  %31 = getelementptr inbounds nuw { ptr, i64 }, ptr %24, i32 0, i32 0
  %32 = load ptr, ptr %31, align 8
  %33 = getelementptr inbounds nuw { ptr, i64 }, ptr %24, i32 0, i32 1
  %34 = load i64, ptr %33, align 8
  %35 = call noundef ptr @_ZN4llvm6DINode20getCanonicalMDStringERNS_11LLVMContextENS_9StringRefE(ptr noundef nonnull align 8 dereferenceable(8) %30, ptr %32, i64 %34)
  %36 = load ptr, ptr %16, align 8
  %37 = load ptr, ptr %17, align 8
  %38 = load ptr, ptr %18, align 8
  %39 = load i64, ptr %19, align 8
  %40 = load i32, ptr %20, align 4
  %41 = load i32, ptr %21, align 4
  %42 = load i32, ptr %22, align 4
  %43 = load i8, ptr %23, align 1
  %44 = trunc i8 %43 to i1
  %45 = call noundef ptr @_ZN4llvm12DIStringType7getImplERNS_11LLVMContextEjPNS_8MDStringEPNS_8MetadataES6_S6_mjjNS5_11StorageTypeEb(ptr noundef nonnull align 8 dereferenceable(8) %28, i32 noundef %29, ptr noundef %35, ptr noundef %36, ptr noundef %37, ptr noundef %38, i64 noundef %39, i32 noundef %40, i32 noundef %41, i32 noundef %42, i1 noundef zeroext %44)
  ret ptr %45
}

; Function Attrs: mustprogress nounwind uwtable
define linkonce_odr hidden noundef ptr @_ZN4llvm12DIStringType3getERNS_11LLVMContextEjNS_9StringRefEPNS_8MetadataES5_S5_mjj(ptr noundef nonnull align 8 dereferenceable(8) %0, i32 noundef %1, ptr %2, i64 %3, ptr noundef %4, ptr noundef %5, ptr noundef %6, i64 noundef %7, i32 noundef %8, i32 noundef %9) #0 comdat align 2 {
  %11 = alloca %"class.llvm::StringRef", align 8
  %12 = alloca ptr, align 8
  %13 = alloca i32, align 4
  %14 = alloca ptr, align 8
  %15 = alloca ptr, align 8
  %16 = alloca ptr, align 8
  %17 = alloca i64, align 8
  %18 = alloca i32, align 4
  %19 = alloca i32, align 4
  %20 = alloca %"class.llvm::StringRef", align 8
  %21 = getelementptr inbounds nuw { ptr, i64 }, ptr %11, i32 0, i32 0
  store ptr %2, ptr %21, align 8
  %22 = getelementptr inbounds nuw { ptr, i64 }, ptr %11, i32 0, i32 1
  store i64 %3, ptr %22, align 8
  store ptr %0, ptr %12, align 8
  store i32 %1, ptr %13, align 4
  store ptr %4, ptr %14, align 8
  store ptr %5, ptr %15, align 8
  store ptr %6, ptr %16, align 8
  store i64 %7, ptr %17, align 8
  store i32 %8, ptr %18, align 4
  store i32 %9, ptr %19, align 4
  %23 = load ptr, ptr %12, align 8
  %24 = load i32, ptr %13, align 4
  call void @llvm.memcpy.p0.p0.i64(ptr align 8 %20, ptr align 8 %11, i64 16, i1 false)
  %25 = load ptr, ptr %14, align 8
  %26 = load ptr, ptr %15, align 8
  %27 = load ptr, ptr %16, align 8
  %28 = load i64, ptr %17, align 8
  %29 = load i32, ptr %18, align 4
  %30 = load i32, ptr %19, align 4
  %31 = getelementptr inbounds nuw { ptr, i64 }, ptr %20, i32 0, i32 0
  %32 = load ptr, ptr %31, align 8
  %33 = getelementptr inbounds nuw { ptr, i64 }, ptr %20, i32 0, i32 1
  %34 = load i64, ptr %33, align 8
  %35 = call noundef ptr @_ZN4llvm12DIStringType7getImplERNS_11LLVMContextEjNS_9StringRefEPNS_8MetadataES5_S5_mjjNS4_11StorageTypeEb(ptr noundef nonnull align 8 dereferenceable(8) %23, i32 noundef %24, ptr %32, i64 %34, ptr noundef %25, ptr noundef %26, ptr noundef %27, i64 noundef %28, i32 noundef %29, i32 noundef %30, i32 noundef 0, i1 noundef zeroext true)
  ret ptr %35
}

; Function Attrs: mustprogress nounwind uwtable
define dso_local noundef ptr @_ZN4llvm9DIBuilder16createStringTypeENS_9StringRefEPNS_12DIExpressionES3_(ptr noundef nonnull align 8 dereferenceable(416) %0, ptr %1, i64 %2, ptr noundef %3, ptr noundef %4) #0 align 2 {
  %6 = alloca %"class.llvm::StringRef", align 8
  %7 = alloca ptr, align 8
  %8 = alloca ptr, align 8
  %9 = alloca ptr, align 8
  %10 = alloca %"class.llvm::StringRef", align 8
  %11 = getelementptr inbounds nuw { ptr, i64 }, ptr %6, i32 0, i32 0
  store ptr %1, ptr %11, align 8
  %12 = getelementptr inbounds nuw { ptr, i64 }, ptr %6, i32 0, i32 1
  store i64 %2, ptr %12, align 8
  store ptr %0, ptr %7, align 8
  store ptr %3, ptr %8, align 8
  store ptr %4, ptr %9, align 8
  %13 = load ptr, ptr %7, align 8
  %14 = getelementptr inbounds nuw %"class.llvm::DIBuilder", ptr %13, i32 0, i32 1
  %15 = load ptr, ptr %14, align 8
  call void @llvm.memcpy.p0.p0.i64(ptr align 8 %10, ptr align 8 %6, i64 16, i1 false)
  %16 = load ptr, ptr %8, align 8
  %17 = load ptr, ptr %9, align 8
  %18 = getelementptr inbounds nuw { ptr, i64 }, ptr %10, i32 0, i32 0
  %19 = load ptr, ptr %18, align 8
  %20 = getelementptr inbounds nuw { ptr, i64 }, ptr %10, i32 0, i32 1
  %21 = load i64, ptr %20, align 8
  %22 = call noundef ptr @_ZN4llvm12DIStringType3getERNS_11LLVMContextEjNS_9StringRefEPNS_8MetadataES5_S5_mjj(ptr noundef nonnull align 8 dereferenceable(8) %15, i32 noundef 18, ptr %19, i64 %21, ptr noundef null, ptr noundef %16, ptr noundef %17, i64 noundef 0, i32 noundef 0, i32 noundef 0)
  ret ptr %22
}