; Function Attrs: mustprogress nounwind uwtable
define dso_local noundef ptr @_ZN4llvm9DIBuilder16createStringTypeENS_9StringRefEPNS_12DIExpressionES3_(ptr nocapture noundef nonnull readonly align 8 dereferenceable(416) %0, ptr %1, i64 %2, ptr noundef %3, ptr noundef %4) local_unnamed_addr #0 align 2 {
  %6 = getelementptr inbounds nuw i8, ptr %0, i64 8
  %7 = load ptr, ptr %6, align 8
  %8 = icmp eq i64 %2, 0
  br i1 %8, label %_ZN4llvm12DIStringType3getERNS_11LLVMContextEjNS_9StringRefEPNS_8MetadataES5_S5_mjj.exit, label %9

9:                                                ; preds = %5
  %10 = tail call noundef ptr @_ZN4llvm8MDString3getERNS_11LLVMContextENS_9StringRefE(ptr noundef nonnull align 8 dereferenceable(8) %7, ptr %1, i64 %2) #13
  br label %_ZN4llvm12DIStringType3getERNS_11LLVMContextEjNS_9StringRefEPNS_8MetadataES5_S5_mjj.exit

_ZN4llvm12DIStringType3getERNS_11LLVMContextEjNS_9StringRefEPNS_8MetadataES5_S5_mjj.exit: ; preds = %5, %9
  %.0.i.i.i = phi ptr [ %10, %9 ], [ null, %5 ]
  %11 = tail call noundef ptr @_ZN4llvm12DIStringType7getImplERNS_11LLVMContextEjPNS_8MDStringEPNS_8MetadataES6_S6_mjjNS5_11StorageTypeEb(ptr noundef nonnull align 8 dereferenceable(8) %7, i32 noundef 18, ptr noundef %.0.i.i.i, ptr noundef null, ptr noundef %3, ptr noundef %4, i64 noundef 0, i32 noundef 0, i32 noundef 0, i32 noundef 0, i1 noundef zeroext true) #13
  ret ptr %11
}